; Function Attrs: mustprogress nounwind uwtable
define dso_local void @_ZNK4llvm5APInt7uadd_ovERKS0_Rb(ptr dead_on_unwind noalias writable writeonly sret(%"class.llvm::APInt") align 8 captures(none) %0, ptr noundef nonnull readonly align 8 captures(none) dereferenceable(12) %1, ptr noundef nonnull readonly align 8 captures(none) dereferenceable(12) %2, ptr noundef nonnull writeonly align 1 captures(none) dereferenceable(1) %3) local_unnamed_addr #0 align 2 {
  %5 = getelementptr inbounds nuw i8, ptr %1, i64 8
  %6 = load i32, ptr %5, align 8
  %7 = icmp ult i32 %6, 65
  br i1 %7, label %_ZN4llvm5APIntD2Ev.exit.thread, label %.lr.ph.preheader.i.i.i

.lr.ph.preheader.i.i.i:                           ; preds = %4
  %8 = zext i32 %6 to i64
  %9 = add nuw nsw i64 %8, 63
  %10 = lshr i64 %9, 3
  %11 = and i64 %10, 1073741816
  %12 = tail call noalias noundef nonnull ptr @_Znam(i64 noundef %11) #21
  %13 = load ptr, ptr %1, align 8
  tail call void @llvm.memcpy.p0.p0.i64(ptr nonnull align 8 %12, ptr align 8 %13, i64 %11, i1 false)
  tail call void @llvm.experimental.noalias.scope.decl(metadata !234)
  %14 = load ptr, ptr %2, align 8, !noalias !234
  %15 = lshr i64 %9, 6
  br label %.lr.ph.i.i.i

.lr.ph.i.i.i:                                     ; preds = %.lr.ph.i.i.i, %.lr.ph.preheader.i.i.i
  %indvars.iv.i.i.i = phi i64 [ 0, %.lr.ph.preheader.i.i.i ], [ %indvars.iv.next.i.i.i, %.lr.ph.i.i.i ]
  %.022.i.i.i = phi i1 [ true, %.lr.ph.preheader.i.i.i ], [ %.1.in.i.i.i, %.lr.ph.i.i.i ]
  %16 = getelementptr inbounds nuw i64, ptr %12, i64 %indvars.iv.i.i.i
  %17 = load i64, ptr %16, align 8, !noalias !234
  %18 = getelementptr inbounds nuw i64, ptr %14, i64 %indvars.iv.i.i.i
  %19 = load i64, ptr %18, align 8, !noalias !234
  %20 = add i64 %19, %17
  %21 = icmp uge i64 %20, %17
  %22 = add i64 %20, 1
  %23 = icmp ugt i64 %22, %17
  %.sink.i.i.i = select i1 %.022.i.i.i, i64 %20, i64 %22
  %.1.in.i.i.i = select i1 %.022.i.i.i, i1 %21, i1 %23
  store i64 %.sink.i.i.i, ptr %16, align 8, !noalias !234
  %indvars.iv.next.i.i.i = add nuw nsw i64 %indvars.iv.i.i.i, 1
  %exitcond.not.i.i.i = icmp eq i64 %indvars.iv.next.i.i.i, %15
  br i1 %exitcond.not.i.i.i, label %_ZN4llvm5APIntD2Ev.exit, label %.lr.ph.i.i.i, !llvm.loop !12

_ZN4llvm5APIntD2Ev.exit.thread:                   ; preds = %4
  %24 = load i64, ptr %1, align 8
  %25 = load i64, ptr %2, align 8, !noalias !234
  %26 = add i64 %25, %24
  %27 = add nuw nsw i32 %6, 63
  %28 = and i32 %27, 63
  %29 = xor i32 %28, 63
  %30 = zext nneg i32 %29 to i64
  %31 = lshr i64 -1, %30
  %32 = icmp eq i32 %6, 0
  %spec.store.select.i.i.i = select i1 %32, i64 0, i64 %31
  %33 = and i64 %26, %spec.store.select.i.i.i
  %34 = getelementptr inbounds nuw i8, ptr %0, i64 8
  store i32 %6, ptr %34, align 8, !alias.scope !234
  store i64 %33, ptr %0, align 8, !alias.scope !234
  %35 = icmp ult i64 %33, %25
  br label %_ZNK4llvm5APInt3ultERKS0_.exit

_ZN4llvm5APIntD2Ev.exit:                          ; preds = %.lr.ph.i.i.i
  %36 = ptrtoint ptr %12 to i64
  %37 = add i32 %6, 63
  %38 = and i32 %37, 63
  %39 = xor i32 %38, 63
  %40 = zext nneg i32 %39 to i64
  %41 = lshr i64 -1, %40
  %42 = add nuw nsw i64 %15, 4294967295
  %43 = and i64 %42, 4294967295
  %44 = getelementptr inbounds nuw i64, ptr %12, i64 %43
  %45 = load i64, ptr %44, align 8, !noalias !234
  %46 = and i64 %45, %41
  store i64 %46, ptr %44, align 8, !noalias !234
  %47 = getelementptr inbounds nuw i8, ptr %0, i64 8
  store i32 %6, ptr %47, align 8, !alias.scope !234
  store i64 %36, ptr %0, align 8, !alias.scope !234
  br label %48

48:                                               ; preds = %49, %_ZN4llvm5APIntD2Ev.exit
  %indvars.iv.i.i.i5 = phi i64 [ %50, %49 ], [ %15, %_ZN4llvm5APIntD2Ev.exit ]
  %.not.i.i.i = icmp eq i64 %indvars.iv.i.i.i5, 0
  br i1 %.not.i.i.i, label %_ZNK4llvm5APInt3ultERKS0_.exit, label %49

49:                                               ; preds = %48
  %50 = add nsw i64 %indvars.iv.i.i.i5, -1
  %51 = getelementptr inbounds nuw i64, ptr %12, i64 %50
  %52 = load i64, ptr %51, align 8
  %53 = getelementptr inbounds nuw i64, ptr %14, i64 %50
  %54 = load i64, ptr %53, align 8
  %.not13.i.i.i = icmp eq i64 %52, %54
  br i1 %.not13.i.i.i, label %48, label %55, !llvm.loop !23

55:                                               ; preds = %49
  %56 = icmp ule i64 %52, %54
  br label %_ZNK4llvm5APInt3ultERKS0_.exit

_ZNK4llvm5APInt3ultERKS0_.exit:                   ; preds = %48, %_ZN4llvm5APIntD2Ev.exit.thread, %55
  %.0.i.i = phi i1 [ %35, %_ZN4llvm5APIntD2Ev.exit.thread ], [ %56, %55 ], [ false, %48 ]
  %57 = zext i1 %.0.i.i to i8
  store i8 %57, ptr %3, align 1
  ret void
}